; Function Attrs: nounwind uwtable
define dso_local range(i32 0, 2) i32 @archive_entry_update_gname_utf8(ptr noundef %0, ptr noundef %1) local_unnamed_addr #0 {
  %3 = load ptr, ptr %0, align 8, !tbaa !25
  %4 = getelementptr inbounds nuw i8, ptr %0, i64 320
  %5 = tail call i32 @archive_mstring_update_utf8(ptr noundef %3, ptr noundef nonnull %4, ptr noundef %1) #21
  %6 = icmp eq i32 %5, 0
  br i1 %6, label %12, label %7

7:                                                ; preds = %2
  %8 = tail call ptr @__errno_location() #25
  %9 = load i32, ptr %8, align 4, !tbaa !28
  %10 = icmp eq i32 %9, 12
  br i1 %10, label %11, label %12

11:                                               ; preds = %7
  tail call void @__archive_errx(i32 noundef 1, ptr noundef nonnull @.str) #23
  unreachable

12:                                               ; preds = %7, %2
  %.0 = phi i32 [ 1, %2 ], [ 0, %7 ]
  ret i32 %.0
}